; Function Attrs: mustprogress nofree norecurse nosync nounwind sspstrong willreturn memory(read, inaccessiblemem: none) uwtable
define dso_local ptr @rb_objspace_data_type_name(i64 noundef %0) local_unnamed_addr #4 {
  %2 = inttoptr i64 %0 to ptr
  %3 = getelementptr inbounds nuw i8, ptr %2, i64 24
  %4 = load i64, ptr %3, align 8, !tbaa !208
  %5 = add i64 %4, -1
  %6 = icmp ult i64 %5, 3
  br i1 %6, label %7, label %11

7:                                                ; preds = %1
  %8 = getelementptr inbounds nuw i8, ptr %2, i64 16
  %9 = load ptr, ptr %8, align 8, !tbaa !210
  %10 = load ptr, ptr %9, align 8, !tbaa !211
  br label %11

11:                                               ; preds = %1, %7
  %.0 = phi ptr [ %10, %7 ], [ null, %1 ]
  ret ptr %.0
}